target datalayout = "e-m:e-p270:32:32-p271:32:32-p272:64:64-i64:64-i128:128-f80:128-n8:16:32:64-S128"
target triple = "x86_64-pc-linux-gnu"

; Function Attrs: nounwind uwtable
define internal i32 @test_run_main_loop() #0 {
  %1 = alloca i32, align 4
  %2 = alloca i32, align 4
  %3 = alloca i32, align 4
  %4 = alloca i32, align 4
  call void @llvm.lifetime.start.p0(i64 4, ptr %2) #11
  store i32 0, ptr %2, align 4, !tbaa !4
  br label %5

5:                                                ; preds = %19, %0
  %6 = load i32, ptr %2, align 4, !tbaa !4
  %7 = icmp slt i32 %6, 5
  br i1 %7, label %9, label %8

8:                                                ; preds = %5
  store i32 2, ptr %3, align 4
  br label %22

9:                                                ; preds = %5
  call void @llvm.lifetime.start.p0(i64 4, ptr %4) #11
  %10 = call i32 @test_run_main()
  store i32 %10, ptr %4, align 4, !tbaa !4
  %11 = load i32, ptr %4, align 4, !tbaa !4
  %12 = icmp ne i32 %11, 0
  br i1 %12, label %13, label %15

13:                                               ; preds = %9
  %14 = load i32, ptr %4, align 4, !tbaa !4
  store i32 %14, ptr %1, align 4
  store i32 1, ptr %3, align 4
  br label %16

15:                                               ; preds = %9
  store i32 0, ptr %3, align 4
  br label %16

16:                                               ; preds = %15, %13
  call void @llvm.lifetime.end.p0(i64 4, ptr %4) #11
  %17 = load i32, ptr %3, align 4
  switch i32 %17, label %22 [
    i32 0, label %18
  ]

18:                                               ; preds = %16
  br label %19

19:                                               ; preds = %18
  %20 = load i32, ptr %2, align 4, !tbaa !4
  %21 = add i32 %20, 1
  store i32 %21, ptr %2, align 4, !tbaa !4
  br label %5, !llvm.loop !77

22:                                               ; preds = %16, %8
  call void @llvm.lifetime.end.p0(i64 4, ptr %2) #11
  %23 = load i32, ptr %3, align 4
  switch i32 %23, label %27 [
    i32 2, label %24
    i32 1, label %25
  ]

24:                                               ; preds = %22
  store i32 0, ptr %1, align 4
  br label %25

25:                                               ; preds = %24, %22
  %26 = load i32, ptr %1, align 4
  ret i32 %26

27:                                               ; preds = %22
  unreachable
}