; Function Attrs: nounwind uwtable
define internal i32 @test_run_main_loop() #0 {
  br label %1

1:                                                ; preds = %1, %0
  %.0911 = phi i32 [ 0, %0 ], [ %3, %1 ]
  %2 = tail call i32 @test_run_main()
  %.not = icmp ne i32 %2, 0
  %3 = add nuw nsw i32 %.0911, 1
  %exitcond = icmp eq i32 %3, 5
  %or.cond = select i1 %.not, i1 true, i1 %exitcond
  br i1 %or.cond, label %4, label %1, !llvm.loop !79

4:                                                ; preds = %1
  ret i32 %2
}